target datalayout = "e-m:e-p270:32:32-p271:32:32-p272:64:64-i64:64-i128:128-f80:128-n8:16:32:64-S128"
target triple = "x86_64-pc-linux-gnu"

%struct.ruby_cmdline_options = type { ptr, i64, i64, %struct.anon.6, %struct.anon.6, %struct.anon.6, i64, %struct.ruby_features_t, %struct.ruby_features_t, i32, i64, ptr, i16 }
%struct.anon.6 = type { %struct.anon.7 }
%struct.anon.7 = type { i64, i32 }
%struct.ruby_features_t = type { i32, i32 }

@rb_eRuntimeError = external global i64, align 8
@.str.41 = private unnamed_addr constant [17 x i8] c"default_internal\00", align 1
@.str.56 = private unnamed_addr constant [17 x i8] c"default_external\00", align 1
@.str.57 = private unnamed_addr constant [26 x i8] c"extra argument for %s: %s\00", align 1

; Function Attrs: nounwind sspstrong uwtable
define internal void @proc_encoding_option(ptr noundef %0, ptr noundef %1, ptr noundef %2) #0 {
  %4 = alloca ptr, align 8
  %5 = alloca ptr, align 8
  %6 = alloca ptr, align 8
  %7 = alloca ptr, align 8
  %8 = alloca i32, align 4
  store ptr %0, ptr %4, align 8, !tbaa !51
  store ptr %1, ptr %5, align 8, !tbaa !7
  store ptr %2, ptr %6, align 8, !tbaa !7
  call void @llvm.lifetime.start.p0(i64 8, ptr %7) #24
  %9 = load ptr, ptr %5, align 8, !tbaa !7
  %10 = call ptr @strchr(ptr noundef %9, i32 noundef 58) #25
  store ptr %10, ptr %7, align 8, !tbaa !7
  %11 = icmp ne ptr %10, null
  br i1 %11, label %18, label %12

12:                                               ; preds = %3
  %13 = load ptr, ptr %4, align 8, !tbaa !51
  %14 = getelementptr inbounds nuw %struct.ruby_cmdline_options, ptr %13, i32 0, i32 4
  %15 = getelementptr inbounds nuw %struct.anon.6, ptr %14, i32 0, i32 0
  %16 = getelementptr inbounds nuw %struct.anon.7, ptr %15, i32 0, i32 0
  %17 = load ptr, ptr %5, align 8, !tbaa !7
  call void @set_option_encoding_once(ptr noundef @.str.56, ptr noundef %16, ptr noundef %17, i64 noundef 0)
  store i32 1, ptr %8, align 4
  br label %76

18:                                               ; preds = %3
  %19 = load ptr, ptr %7, align 8, !tbaa !7
  %20 = load ptr, ptr %5, align 8, !tbaa !7
  %21 = icmp ugt ptr %19, %20
  br i1 %21, label %22, label %33

22:                                               ; preds = %18
  %23 = load ptr, ptr %4, align 8, !tbaa !51
  %24 = getelementptr inbounds nuw %struct.ruby_cmdline_options, ptr %23, i32 0, i32 4
  %25 = getelementptr inbounds nuw %struct.anon.6, ptr %24, i32 0, i32 0
  %26 = getelementptr inbounds nuw %struct.anon.7, ptr %25, i32 0, i32 0
  %27 = load ptr, ptr %5, align 8, !tbaa !7
  %28 = load ptr, ptr %7, align 8, !tbaa !7
  %29 = load ptr, ptr %5, align 8, !tbaa !7
  %30 = ptrtoint ptr %28 to i64
  %31 = ptrtoint ptr %29 to i64
  %32 = sub i64 %30, %31
  call void @set_option_encoding_once(ptr noundef @.str.56, ptr noundef %26, ptr noundef %27, i64 noundef %32)
  br label %33

33:                                               ; preds = %22, %18
  br label %34

34:                                               ; preds = %33
  %35 = load ptr, ptr %7, align 8, !tbaa !7
  %36 = getelementptr i8, ptr %35, i32 1
  store ptr %36, ptr %7, align 8, !tbaa !7
  store ptr %36, ptr %5, align 8, !tbaa !7
  %37 = load i8, ptr %36, align 1, !tbaa !14
  %38 = icmp ne i8 %37, 0
  br i1 %38, label %40, label %39

39:                                               ; preds = %34
  store i32 1, ptr %8, align 4
  br label %76

40:                                               ; preds = %34
  %41 = load ptr, ptr %5, align 8, !tbaa !7
  %42 = call ptr @strchr(ptr noundef %41, i32 noundef 58) #25
  store ptr %42, ptr %7, align 8, !tbaa !7
  %43 = icmp ne ptr %42, null
  br i1 %43, label %50, label %44

44:                                               ; preds = %40
  %45 = load ptr, ptr %4, align 8, !tbaa !51
  %46 = getelementptr inbounds nuw %struct.ruby_cmdline_options, ptr %45, i32 0, i32 5
  %47 = getelementptr inbounds nuw %struct.anon.6, ptr %46, i32 0, i32 0
  %48 = getelementptr inbounds nuw %struct.anon.7, ptr %47, i32 0, i32 0
  %49 = load ptr, ptr %5, align 8, !tbaa !7
  call void @set_option_encoding_once(ptr noundef @.str.41, ptr noundef %48, ptr noundef %49, i64 noundef 0)
  store i32 1, ptr %8, align 4
  br label %76

50:                                               ; preds = %40
  %51 = load ptr, ptr %7, align 8, !tbaa !7
  %52 = load ptr, ptr %5, align 8, !tbaa !7
  %53 = icmp ugt ptr %51, %52
  br i1 %53, label %54, label %65

54:                                               ; preds = %50
  %55 = load ptr, ptr %4, align 8, !tbaa !51
  %56 = getelementptr inbounds nuw %struct.ruby_cmdline_options, ptr %55, i32 0, i32 5
  %57 = getelementptr inbounds nuw %struct.anon.6, ptr %56, i32 0, i32 0
  %58 = getelementptr inbounds nuw %struct.anon.7, ptr %57, i32 0, i32 0
  %59 = load ptr, ptr %5, align 8, !tbaa !7
  %60 = load ptr, ptr %7, align 8, !tbaa !7
  %61 = load ptr, ptr %5, align 8, !tbaa !7
  %62 = ptrtoint ptr %60 to i64
  %63 = ptrtoint ptr %61 to i64
  %64 = sub i64 %62, %63
  call void @set_option_encoding_once(ptr noundef @.str.41, ptr noundef %58, ptr noundef %59, i64 noundef %64)
  br label %65

65:                                               ; preds = %54, %50
  br label %66

66:                                               ; preds = %65
  %67 = load ptr, ptr %7, align 8, !tbaa !7
  %68 = getelementptr i8, ptr %67, i32 1
  store ptr %68, ptr %7, align 8, !tbaa !7
  store ptr %68, ptr %5, align 8, !tbaa !7
  %69 = load i8, ptr %68, align 1, !tbaa !14
  %70 = icmp ne i8 %69, 0
  br i1 %70, label %72, label %71

71:                                               ; preds = %66
  store i32 1, ptr %8, align 4
  br label %76

72:                                               ; preds = %66
  %73 = load i64, ptr @rb_eRuntimeError, align 8, !tbaa !42
  %74 = load ptr, ptr %6, align 8, !tbaa !7
  %75 = load ptr, ptr %5, align 8, !tbaa !7
  call void (i64, ptr, ...) @rb_raise(i64 noundef %73, ptr noundef @.str.57, ptr noundef %74, ptr noundef %75) #26
  unreachable

76:                                               ; preds = %71, %44, %39, %12
  call void @llvm.lifetime.end.p0(i64 8, ptr %7) #24
  ret void
}