; Function Attrs: nounwind sspstrong uwtable
define internal fastcc void @proc_encoding_option(ptr noundef captures(none) %0, ptr noundef %1, ptr noundef %2) unnamed_addr #0 {
  %4 = tail call ptr @strchr(ptr noundef nonnull dereferenceable(1) %1, i32 noundef 58) #24
  %.not = icmp eq ptr %4, null
  br i1 %.not, label %5, label %17

5:                                                ; preds = %3
  %6 = getelementptr inbounds nuw i8, ptr %0, i64 40
  %7 = tail call i64 @strlen(ptr noundef nonnull dereferenceable(1) %1) #24
  %8 = tail call i64 @rb_str_new(ptr noundef nonnull %1, i64 noundef %7) #25
  %9 = load i64, ptr %6, align 8, !tbaa !47
  %.not12.i = icmp eq i64 %9, 0
  br i1 %.not12.i, label %set_option_encoding_once.exit, label %10

10:                                               ; preds = %5
  %.pr.i.i = load i64, ptr @set_option_encoding_once.rbimpl_id, align 8, !tbaa !47
  %.not4.i.i = icmp eq i64 %.pr.i.i, 0
  br i1 %.not4.i.i, label %.lr.ph.i.i, label %rbimpl_intern_const.exit.i

.lr.ph.i.i:                                       ; preds = %10, %.lr.ph.i.i
  %11 = tail call i64 @rb_intern2(ptr noundef nonnull @.str.58, i64 noundef 7) #25
  store i64 %11, ptr @set_option_encoding_once.rbimpl_id, align 8, !tbaa !47
  %.not.i.i = icmp eq i64 %11, 0
  br i1 %.not.i.i, label %.lr.ph.i.i, label %rbimpl_intern_const.exit.loopexit.i, !llvm.loop !163

rbimpl_intern_const.exit.loopexit.i:              ; preds = %.lr.ph.i.i
  %.pre.i = load i64, ptr %6, align 8, !tbaa !47
  br label %rbimpl_intern_const.exit.i

rbimpl_intern_const.exit.i:                       ; preds = %rbimpl_intern_const.exit.loopexit.i, %10
  %12 = phi i64 [ %9, %10 ], [ %.pre.i, %rbimpl_intern_const.exit.loopexit.i ]
  %.lcssa.i.i = phi i64 [ %.pr.i.i, %10 ], [ %11, %rbimpl_intern_const.exit.loopexit.i ]
  %13 = tail call i64 (i64, i64, i32, ...) @rb_funcall(i64 noundef %8, i64 noundef %.lcssa.i.i, i32 noundef 1, i64 noundef %12) #25
  %.not13.i = icmp eq i64 %13, 1
  br i1 %.not13.i, label %set_option_encoding_once.exit, label %14

14:                                               ; preds = %rbimpl_intern_const.exit.i
  %15 = load i64, ptr @rb_eRuntimeError, align 8, !tbaa !47
  %16 = load i64, ptr %6, align 8, !tbaa !47
  tail call void (i64, ptr, ...) @rb_raise(i64 noundef %15, ptr noundef nonnull @.str.59, ptr noundef nonnull @.str.56, i64 noundef %16) #26
  unreachable

set_option_encoding_once.exit:                    ; preds = %5, %rbimpl_intern_const.exit.i
  store i64 %8, ptr %6, align 8, !tbaa !47
  br label %53

17:                                               ; preds = %3
  %18 = icmp ugt ptr %4, %1
  br i1 %18, label %19, label %24

19:                                               ; preds = %17
  %20 = getelementptr inbounds nuw i8, ptr %0, i64 40
  %21 = ptrtoint ptr %4 to i64
  %22 = ptrtoint ptr %1 to i64
  %23 = sub i64 %21, %22
  tail call fastcc void @set_option_encoding_once(ptr noundef nonnull @.str.56, ptr noundef nonnull %20, ptr noundef nonnull %1, i64 noundef %23)
  br label %24

24:                                               ; preds = %17, %19
  %25 = getelementptr i8, ptr %4, i64 1
  %26 = load i8, ptr %25, align 1, !tbaa !7
  %.not25 = icmp eq i8 %26, 0
  br i1 %.not25, label %53, label %27

27:                                               ; preds = %24
  %28 = tail call ptr @strchr(ptr noundef nonnull dereferenceable(1) %25, i32 noundef 58) #24
  %.not26 = icmp eq ptr %28, null
  br i1 %.not26, label %29, label %41

29:                                               ; preds = %27
  %30 = getelementptr inbounds nuw i8, ptr %0, i64 56
  %31 = tail call i64 @strlen(ptr noundef nonnull dereferenceable(1) %25) #24
  %32 = tail call i64 @rb_str_new(ptr noundef nonnull %25, i64 noundef %31) #25
  %33 = load i64, ptr %30, align 8, !tbaa !47
  %.not12.i28 = icmp eq i64 %33, 0
  br i1 %.not12.i28, label %set_option_encoding_once.exit38, label %34

34:                                               ; preds = %29
  %.pr.i.i29 = load i64, ptr @set_option_encoding_once.rbimpl_id, align 8, !tbaa !47
  %.not4.i.i30 = icmp eq i64 %.pr.i.i29, 0
  br i1 %.not4.i.i30, label %.lr.ph.i.i34, label %rbimpl_intern_const.exit.i31

.lr.ph.i.i34:                                     ; preds = %34, %.lr.ph.i.i34
  %35 = tail call i64 @rb_intern2(ptr noundef nonnull @.str.58, i64 noundef 7) #25
  store i64 %35, ptr @set_option_encoding_once.rbimpl_id, align 8, !tbaa !47
  %.not.i.i35 = icmp eq i64 %35, 0
  br i1 %.not.i.i35, label %.lr.ph.i.i34, label %rbimpl_intern_const.exit.loopexit.i36, !llvm.loop !163

rbimpl_intern_const.exit.loopexit.i36:            ; preds = %.lr.ph.i.i34
  %.pre.i37 = load i64, ptr %30, align 8, !tbaa !47
  br label %rbimpl_intern_const.exit.i31

rbimpl_intern_const.exit.i31:                     ; preds = %rbimpl_intern_const.exit.loopexit.i36, %34
  %36 = phi i64 [ %33, %34 ], [ %.pre.i37, %rbimpl_intern_const.exit.loopexit.i36 ]
  %.lcssa.i.i32 = phi i64 [ %.pr.i.i29, %34 ], [ %35, %rbimpl_intern_const.exit.loopexit.i36 ]
  %37 = tail call i64 (i64, i64, i32, ...) @rb_funcall(i64 noundef %32, i64 noundef %.lcssa.i.i32, i32 noundef 1, i64 noundef %36) #25
  %.not13.i33 = icmp eq i64 %37, 1
  br i1 %.not13.i33, label %set_option_encoding_once.exit38, label %38

38:                                               ; preds = %rbimpl_intern_const.exit.i31
  %39 = load i64, ptr @rb_eRuntimeError, align 8, !tbaa !47
  %40 = load i64, ptr %30, align 8, !tbaa !47
  tail call void (i64, ptr, ...) @rb_raise(i64 noundef %39, ptr noundef nonnull @.str.59, ptr noundef nonnull @.str.41, i64 noundef %40) #26
  unreachable

set_option_encoding_once.exit38:                  ; preds = %29, %rbimpl_intern_const.exit.i31
  store i64 %32, ptr %30, align 8, !tbaa !47
  br label %53

41:                                               ; preds = %27
  %42 = icmp ugt ptr %28, %25
  br i1 %42, label %43, label %48

43:                                               ; preds = %41
  %44 = getelementptr inbounds nuw i8, ptr %0, i64 56
  %45 = ptrtoint ptr %28 to i64
  %46 = ptrtoint ptr %25 to i64
  %47 = sub i64 %45, %46
  tail call fastcc void @set_option_encoding_once(ptr noundef nonnull @.str.41, ptr noundef nonnull %44, ptr noundef nonnull %25, i64 noundef %47)
  br label %48

48:                                               ; preds = %41, %43
  %49 = getelementptr i8, ptr %28, i64 1
  %50 = load i8, ptr %49, align 1, !tbaa !7
  %.not27 = icmp eq i8 %50, 0
  br i1 %.not27, label %53, label %51

51:                                               ; preds = %48
  %52 = load i64, ptr @rb_eRuntimeError, align 8, !tbaa !47
  tail call void (i64, ptr, ...) @rb_raise(i64 noundef %52, ptr noundef nonnull @.str.57, ptr noundef %2, ptr noundef nonnull %49) #26
  unreachable

53:                                               ; preds = %48, %24, %set_option_encoding_once.exit38, %set_option_encoding_once.exit
  ret void
}